target datalayout = "e-m:e-p270:32:32-p271:32:32-p272:64:64-i64:64-i128:128-f80:128-n8:16:32:64-S128"
target triple = "x86_64-pc-linux-gnu"

%struct.evthread_lock_callbacks = type { i32, i32, ptr, ptr, ptr, ptr }
%struct.evbuffer_chain = type { ptr, i64, i64, i64, i32, i32, ptr }
%struct.evbuffer = type { ptr, ptr, ptr, i64, i64, i64, i64, ptr, i8, i32, ptr, i32, %struct.event_callback, %struct.evbuffer_cb_queue, ptr }
%struct.event_callback = type { %struct.anon, i16, i8, i8, %union.anon, ptr }
%struct.anon = type { ptr, ptr }
%union.anon = type { ptr }
%struct.evbuffer_cb_queue = type { ptr }
%struct.iovec = type { ptr, i64 }

@evthread_lock_fns_ = external global %struct.evthread_lock_callbacks, align 8
@evthread_lock_debugging_enabled_ = external global i32, align 4

; Function Attrs: nounwind uwtable
define hidden i32 @evbuffer_read_setup_vecs_(ptr noundef %0, i64 noundef %1, ptr noundef %2, i32 noundef %3, ptr noundef %4, i32 noundef %5) #0 {
  %7 = alloca i32, align 4
  %8 = alloca ptr, align 8
  %9 = alloca i64, align 8
  %10 = alloca ptr, align 8
  %11 = alloca i32, align 4
  %12 = alloca ptr, align 8
  %13 = alloca i32, align 4
  %14 = alloca ptr, align 8
  %15 = alloca ptr, align 8
  %16 = alloca i64, align 8
  %17 = alloca i32, align 4
  %18 = alloca i32, align 4
  %19 = alloca i64, align 8
  store ptr %0, ptr %8, align 8
  store i64 %1, ptr %9, align 8
  store ptr %2, ptr %10, align 8
  store i32 %3, ptr %11, align 4
  store ptr %4, ptr %12, align 8
  store i32 %5, ptr %13, align 4
  call void @llvm.lifetime.start.p0(i64 8, ptr %14) #10
  call void @llvm.lifetime.start.p0(i64 8, ptr %15) #10
  call void @llvm.lifetime.start.p0(i64 8, ptr %16) #10
  call void @llvm.lifetime.start.p0(i64 4, ptr %17) #10
  br label %20

20:                                               ; preds = %6
  %21 = load ptr, ptr %8, align 8
  %22 = getelementptr inbounds nuw %struct.evbuffer, ptr %21, i32 0, i32 7
  %23 = load ptr, ptr %22, align 8
  %24 = icmp ne ptr %23, null
  br i1 %24, label %25, label %32

25:                                               ; preds = %20
  %26 = load i32, ptr @evthread_lock_debugging_enabled_, align 4
  %27 = icmp ne i32 %26, 0
  br i1 %27, label %28, label %32

28:                                               ; preds = %25
  br label %29

29:                                               ; preds = %28
  br label %30

30:                                               ; preds = %29
  br label %31

31:                                               ; preds = %30
  br label %32

32:                                               ; preds = %31, %25, %20
  br label %33

33:                                               ; preds = %32
  br label %34

34:                                               ; preds = %33
  %35 = load i64, ptr %9, align 8
  %36 = icmp slt i64 %35, 0
  br i1 %36, label %37, label %38

37:                                               ; preds = %34
  store i32 -1, ptr %7, align 4
  store i32 1, ptr %18, align 4
  br label %159

38:                                               ; preds = %34
  store i64 0, ptr %16, align 8
  %39 = load ptr, ptr %8, align 8
  %40 = getelementptr inbounds nuw %struct.evbuffer, ptr %39, i32 0, i32 2
  %41 = load ptr, ptr %40, align 8
  store ptr %41, ptr %15, align 8
  br label %42

42:                                               ; preds = %38
  br label %43

43:                                               ; preds = %42
  br label %44

44:                                               ; preds = %43
  %45 = load ptr, ptr %15, align 8
  %46 = load ptr, ptr %45, align 8
  %47 = getelementptr inbounds nuw %struct.evbuffer_chain, ptr %46, i32 0, i32 4
  %48 = load i32, ptr %47, align 8
  %49 = and i32 %48, 8
  %50 = icmp ne i32 %49, 0
  br i1 %50, label %51, label %52

51:                                               ; preds = %44
  br label %67

52:                                               ; preds = %44
  %53 = load ptr, ptr %15, align 8
  %54 = load ptr, ptr %53, align 8
  %55 = getelementptr inbounds nuw %struct.evbuffer_chain, ptr %54, i32 0, i32 1
  %56 = load i64, ptr %55, align 8
  %57 = load ptr, ptr %15, align 8
  %58 = load ptr, ptr %57, align 8
  %59 = getelementptr inbounds nuw %struct.evbuffer_chain, ptr %58, i32 0, i32 2
  %60 = load i64, ptr %59, align 8
  %61 = load ptr, ptr %15, align 8
  %62 = load ptr, ptr %61, align 8
  %63 = getelementptr inbounds nuw %struct.evbuffer_chain, ptr %62, i32 0, i32 3
  %64 = load i64, ptr %63, align 8
  %65 = add i64 %60, %64
  %66 = sub i64 %56, %65
  br label %67

67:                                               ; preds = %52, %51
  %68 = phi i64 [ 0, %51 ], [ %66, %52 ]
  %69 = icmp eq i64 %68, 0
  br i1 %69, label %70, label %74

70:                                               ; preds = %67
  %71 = load ptr, ptr %15, align 8
  %72 = load ptr, ptr %71, align 8
  %73 = getelementptr inbounds nuw %struct.evbuffer_chain, ptr %72, i32 0, i32 0
  store ptr %73, ptr %15, align 8
  br label %74

74:                                               ; preds = %70, %67
  %75 = load ptr, ptr %15, align 8
  %76 = load ptr, ptr %75, align 8
  store ptr %76, ptr %14, align 8
  br label %77

77:                                               ; preds = %74
  br label %78

78:                                               ; preds = %77
  br label %79

79:                                               ; preds = %78
  store i32 0, ptr %17, align 4
  br label %80

80:                                               ; preds = %152, %79
  %81 = load i32, ptr %17, align 4
  %82 = load i32, ptr %11, align 4
  %83 = icmp slt i32 %81, %82
  br i1 %83, label %84, label %88

84:                                               ; preds = %80
  %85 = load i64, ptr %16, align 8
  %86 = load i64, ptr %9, align 8
  %87 = icmp ult i64 %85, %86
  br label %88

88:                                               ; preds = %84, %80
  %89 = phi i1 [ false, %80 ], [ %87, %84 ]
  br i1 %89, label %90, label %155

90:                                               ; preds = %88
  call void @llvm.lifetime.start.p0(i64 8, ptr %19) #10
  %91 = load ptr, ptr %14, align 8
  %92 = getelementptr inbounds nuw %struct.evbuffer_chain, ptr %91, i32 0, i32 4
  %93 = load i32, ptr %92, align 8
  %94 = and i32 %93, 8
  %95 = icmp ne i32 %94, 0
  br i1 %95, label %96, label %97

96:                                               ; preds = %90
  br label %109

97:                                               ; preds = %90
  %98 = load ptr, ptr %14, align 8
  %99 = getelementptr inbounds nuw %struct.evbuffer_chain, ptr %98, i32 0, i32 1
  %100 = load i64, ptr %99, align 8
  %101 = load ptr, ptr %14, align 8
  %102 = getelementptr inbounds nuw %struct.evbuffer_chain, ptr %101, i32 0, i32 2
  %103 = load i64, ptr %102, align 8
  %104 = load ptr, ptr %14, align 8
  %105 = getelementptr inbounds nuw %struct.evbuffer_chain, ptr %104, i32 0, i32 3
  %106 = load i64, ptr %105, align 8
  %107 = add i64 %103, %106
  %108 = sub i64 %100, %107
  br label %109

109:                                              ; preds = %97, %96
  %110 = phi i64 [ 0, %96 ], [ %108, %97 ]
  store i64 %110, ptr %19, align 8
  %111 = load i64, ptr %19, align 8
  %112 = load i64, ptr %9, align 8
  %113 = load i64, ptr %16, align 8
  %114 = sub i64 %112, %113
  %115 = icmp ugt i64 %111, %114
  br i1 %115, label %116, label %123

116:                                              ; preds = %109
  %117 = load i32, ptr %13, align 4
  %118 = icmp ne i32 %117, 0
  br i1 %118, label %119, label %123

119:                                              ; preds = %116
  %120 = load i64, ptr %9, align 8
  %121 = load i64, ptr %16, align 8
  %122 = sub i64 %120, %121
  store i64 %122, ptr %19, align 8
  br label %123

123:                                              ; preds = %119, %116, %109
  %124 = load ptr, ptr %14, align 8
  %125 = getelementptr inbounds nuw %struct.evbuffer_chain, ptr %124, i32 0, i32 6
  %126 = load ptr, ptr %125, align 8
  %127 = load ptr, ptr %14, align 8
  %128 = getelementptr inbounds nuw %struct.evbuffer_chain, ptr %127, i32 0, i32 2
  %129 = load i64, ptr %128, align 8
  %130 = getelementptr inbounds i8, ptr %126, i64 %129
  %131 = load ptr, ptr %14, align 8
  %132 = getelementptr inbounds nuw %struct.evbuffer_chain, ptr %131, i32 0, i32 3
  %133 = load i64, ptr %132, align 8
  %134 = getelementptr inbounds nuw i8, ptr %130, i64 %133
  %135 = load ptr, ptr %10, align 8
  %136 = load i32, ptr %17, align 4
  %137 = sext i32 %136 to i64
  %138 = getelementptr inbounds %struct.iovec, ptr %135, i64 %137
  %139 = getelementptr inbounds nuw %struct.iovec, ptr %138, i32 0, i32 0
  store ptr %134, ptr %139, align 8
  %140 = load i64, ptr %19, align 8
  %141 = load ptr, ptr %10, align 8
  %142 = load i32, ptr %17, align 4
  %143 = sext i32 %142 to i64
  %144 = getelementptr inbounds %struct.iovec, ptr %141, i64 %143
  %145 = getelementptr inbounds nuw %struct.iovec, ptr %144, i32 0, i32 1
  store i64 %140, ptr %145, align 8
  %146 = load i64, ptr %19, align 8
  %147 = load i64, ptr %16, align 8
  %148 = add i64 %147, %146
  store i64 %148, ptr %16, align 8
  %149 = load ptr, ptr %14, align 8
  %150 = getelementptr inbounds nuw %struct.evbuffer_chain, ptr %149, i32 0, i32 0
  %151 = load ptr, ptr %150, align 8
  store ptr %151, ptr %14, align 8
  call void @llvm.lifetime.end.p0(i64 8, ptr %19) #10
  br label %152

152:                                              ; preds = %123
  %153 = load i32, ptr %17, align 4
  %154 = add nsw i32 %153, 1
  store i32 %154, ptr %17, align 4
  br label %80, !llvm.loop !11

155:                                              ; preds = %88
  %156 = load ptr, ptr %15, align 8
  %157 = load ptr, ptr %12, align 8
  store ptr %156, ptr %157, align 8
  %158 = load i32, ptr %17, align 4
  store i32 %158, ptr %7, align 4
  store i32 1, ptr %18, align 4
  br label %159

159:                                              ; preds = %155, %37
  call void @llvm.lifetime.end.p0(i64 4, ptr %17) #10
  call void @llvm.lifetime.end.p0(i64 8, ptr %16) #10
  call void @llvm.lifetime.end.p0(i64 8, ptr %15) #10
  call void @llvm.lifetime.end.p0(i64 8, ptr %14) #10
  %160 = load i32, ptr %7, align 4
  ret i32 %160
}

; Function Attrs: nounwind uwtable
define i32 @evbuffer_reserve_space(ptr noundef %0, i64 noundef %1, ptr noundef %2, i32 noundef %3) #0 {
  %5 = alloca ptr, align 8
  %6 = alloca i64, align 8
  %7 = alloca ptr, align 8
  %8 = alloca i32, align 4
  %9 = alloca ptr, align 8
  %10 = alloca ptr, align 8
  %11 = alloca i32, align 4
  store ptr %0, ptr %5, align 8
  store i64 %1, ptr %6, align 8
  store ptr %2, ptr %7, align 8
  store i32 %3, ptr %8, align 4
  call void @llvm.lifetime.start.p0(i64 8, ptr %9) #10
  call void @llvm.lifetime.start.p0(i64 8, ptr %10) #10
  call void @llvm.lifetime.start.p0(i64 4, ptr %11) #10
  store i32 -1, ptr %11, align 4
  br label %12

12:                                               ; preds = %4
  br label %13

13:                                               ; preds = %12
  %14 = load ptr, ptr %5, align 8
  %15 = getelementptr inbounds nuw %struct.evbuffer, ptr %14, i32 0, i32 7
  %16 = load ptr, ptr %15, align 8
  %17 = icmp ne ptr %16, null
  br i1 %17, label %18, label %24

18:                                               ; preds = %13
  %19 = load ptr, ptr getelementptr inbounds nuw (%struct.evthread_lock_callbacks, ptr @evthread_lock_fns_, i32 0, i32 4), align 8
  %20 = load ptr, ptr %5, align 8
  %21 = getelementptr inbounds nuw %struct.evbuffer, ptr %20, i32 0, i32 7
  %22 = load ptr, ptr %21, align 8
  %23 = call i32 %19(i32 noundef 0, ptr noundef %22)
  br label %24

24:                                               ; preds = %18, %13
  br label %25

25:                                               ; preds = %24
  br label %26

26:                                               ; preds = %25
  br label %27

27:                                               ; preds = %26
  br label %28

28:                                               ; preds = %27
  %29 = load ptr, ptr %5, align 8
  %30 = getelementptr inbounds nuw %struct.evbuffer, ptr %29, i32 0, i32 8
  %31 = load i8, ptr %30, align 8
  %32 = lshr i8 %31, 2
  %33 = and i8 %32, 1
  %34 = zext i8 %33 to i32
  %35 = icmp ne i32 %34, 0
  br i1 %35, label %36, label %37

36:                                               ; preds = %28
  br label %105

37:                                               ; preds = %28
  %38 = load i32, ptr %8, align 4
  %39 = icmp slt i32 %38, 1
  br i1 %39, label %40, label %41

40:                                               ; preds = %37
  br label %105

41:                                               ; preds = %37
  %42 = load i32, ptr %8, align 4
  %43 = icmp eq i32 %42, 1
  br i1 %43, label %44, label %91

44:                                               ; preds = %41
  %45 = load ptr, ptr %5, align 8
  %46 = load i64, ptr %6, align 8
  %47 = call ptr @evbuffer_expand_singlechain(ptr noundef %45, i64 noundef %46)
  store ptr %47, ptr %9, align 8
  %48 = icmp eq ptr %47, null
  br i1 %48, label %49, label %50

49:                                               ; preds = %44
  br label %105

50:                                               ; preds = %44
  %51 = load ptr, ptr %9, align 8
  %52 = getelementptr inbounds nuw %struct.evbuffer_chain, ptr %51, i32 0, i32 6
  %53 = load ptr, ptr %52, align 8
  %54 = load ptr, ptr %9, align 8
  %55 = getelementptr inbounds nuw %struct.evbuffer_chain, ptr %54, i32 0, i32 2
  %56 = load i64, ptr %55, align 8
  %57 = getelementptr inbounds i8, ptr %53, i64 %56
  %58 = load ptr, ptr %9, align 8
  %59 = getelementptr inbounds nuw %struct.evbuffer_chain, ptr %58, i32 0, i32 3
  %60 = load i64, ptr %59, align 8
  %61 = getelementptr inbounds nuw i8, ptr %57, i64 %60
  %62 = load ptr, ptr %7, align 8
  %63 = getelementptr inbounds %struct.iovec, ptr %62, i64 0
  %64 = getelementptr inbounds nuw %struct.iovec, ptr %63, i32 0, i32 0
  store ptr %61, ptr %64, align 8
  %65 = load ptr, ptr %9, align 8
  %66 = getelementptr inbounds nuw %struct.evbuffer_chain, ptr %65, i32 0, i32 4
  %67 = load i32, ptr %66, align 8
  %68 = and i32 %67, 8
  %69 = icmp ne i32 %68, 0
  br i1 %69, label %70, label %71

70:                                               ; preds = %50
  br label %83

71:                                               ; preds = %50
  %72 = load ptr, ptr %9, align 8
  %73 = getelementptr inbounds nuw %struct.evbuffer_chain, ptr %72, i32 0, i32 1
  %74 = load i64, ptr %73, align 8
  %75 = load ptr, ptr %9, align 8
  %76 = getelementptr inbounds nuw %struct.evbuffer_chain, ptr %75, i32 0, i32 2
  %77 = load i64, ptr %76, align 8
  %78 = load ptr, ptr %9, align 8
  %79 = getelementptr inbounds nuw %struct.evbuffer_chain, ptr %78, i32 0, i32 3
  %80 = load i64, ptr %79, align 8
  %81 = add i64 %77, %80
  %82 = sub i64 %74, %81
  br label %83

83:                                               ; preds = %71, %70
  %84 = phi i64 [ 0, %70 ], [ %82, %71 ]
  %85 = load ptr, ptr %7, align 8
  %86 = getelementptr inbounds %struct.iovec, ptr %85, i64 0
  %87 = getelementptr inbounds nuw %struct.iovec, ptr %86, i32 0, i32 1
  store i64 %84, ptr %87, align 8
  br label %88

88:                                               ; preds = %83
  br label %89

89:                                               ; preds = %88
  br label %90

90:                                               ; preds = %89
  store i32 1, ptr %11, align 4
  br label %104

91:                                               ; preds = %41
  %92 = load ptr, ptr %5, align 8
  %93 = load i64, ptr %6, align 8
  %94 = load i32, ptr %8, align 4
  %95 = call i32 @evbuffer_expand_fast_(ptr noundef %92, i64 noundef %93, i32 noundef %94)
  %96 = icmp slt i32 %95, 0
  br i1 %96, label %97, label %98

97:                                               ; preds = %91
  br label %105

98:                                               ; preds = %91
  %99 = load ptr, ptr %5, align 8
  %100 = load i64, ptr %6, align 8
  %101 = load ptr, ptr %7, align 8
  %102 = load i32, ptr %8, align 4
  %103 = call i32 @evbuffer_read_setup_vecs_(ptr noundef %99, i64 noundef %100, ptr noundef %101, i32 noundef %102, ptr noundef %10, i32 noundef 0)
  store i32 %103, ptr %11, align 4
  br label %104

104:                                              ; preds = %98, %90
  br label %105

105:                                              ; preds = %104, %97, %49, %40, %36
  br label %106

106:                                              ; preds = %105
  br label %107

107:                                              ; preds = %106
  %108 = load ptr, ptr %5, align 8
  %109 = getelementptr inbounds nuw %struct.evbuffer, ptr %108, i32 0, i32 7
  %110 = load ptr, ptr %109, align 8
  %111 = icmp ne ptr %110, null
  br i1 %111, label %112, label %118

112:                                              ; preds = %107
  %113 = load ptr, ptr getelementptr inbounds nuw (%struct.evthread_lock_callbacks, ptr @evthread_lock_fns_, i32 0, i32 5), align 8
  %114 = load ptr, ptr %5, align 8
  %115 = getelementptr inbounds nuw %struct.evbuffer, ptr %114, i32 0, i32 7
  %116 = load ptr, ptr %115, align 8
  %117 = call i32 %113(i32 noundef 0, ptr noundef %116)
  br label %118

118:                                              ; preds = %112, %107
  br label %119

119:                                              ; preds = %118
  br label %120

120:                                              ; preds = %119
  br label %121

121:                                              ; preds = %120
  br label %122

122:                                              ; preds = %121
  %123 = load i32, ptr %11, align 4
  call void @llvm.lifetime.end.p0(i64 4, ptr %11) #10
  call void @llvm.lifetime.end.p0(i64 8, ptr %10) #10
  call void @llvm.lifetime.end.p0(i64 8, ptr %9) #10
  ret i32 %123
}