; Function Attrs: nounwind uwtable
define i32 @evbuffer_reserve_space(ptr noundef %0, i64 noundef %1, ptr noundef writeonly captures(none) %2, i32 noundef %3) local_unnamed_addr #1 {
  %5 = getelementptr inbounds nuw i8, ptr %0, i64 56
  %6 = load ptr, ptr %5, align 8
  %.not = icmp eq ptr %6, null
  br i1 %.not, label %10, label %7

7:                                                ; preds = %4
  %8 = load ptr, ptr getelementptr inbounds nuw (i8, ptr @evthread_lock_fns_, i64 24), align 8
  %9 = tail call i32 %8(i32 noundef 0, ptr noundef nonnull %6) #16
  br label %10

10:                                               ; preds = %7, %4
  %11 = getelementptr inbounds nuw i8, ptr %0, i64 64
  %12 = load i8, ptr %11, align 8
  %13 = and i8 %12, 4
  %14 = icmp ne i8 %13, 0
  %15 = icmp slt i32 %3, 1
  %or.cond = or i1 %15, %14
  br i1 %or.cond, label %evbuffer_read_setup_vecs_.exit, label %16

16:                                               ; preds = %10
  %17 = icmp eq i32 %3, 1
  br i1 %17, label %18, label %43

18:                                               ; preds = %16
  %19 = tail call fastcc ptr @evbuffer_expand_singlechain(ptr noundef nonnull %0, i64 noundef %1)
  %20 = icmp eq ptr %19, null
  br i1 %20, label %evbuffer_read_setup_vecs_.exit, label %21

21:                                               ; preds = %18
  %22 = getelementptr inbounds nuw i8, ptr %19, i64 40
  %23 = load ptr, ptr %22, align 8
  %24 = getelementptr inbounds nuw i8, ptr %19, i64 16
  %25 = load i64, ptr %24, align 8
  %26 = getelementptr inbounds i8, ptr %23, i64 %25
  %27 = getelementptr inbounds nuw i8, ptr %19, i64 24
  %28 = load i64, ptr %27, align 8
  %29 = getelementptr inbounds nuw i8, ptr %26, i64 %28
  store ptr %29, ptr %2, align 8
  %30 = getelementptr inbounds nuw i8, ptr %19, i64 32
  %31 = load i32, ptr %30, align 8
  %32 = and i32 %31, 8
  %.not30 = icmp eq i32 %32, 0
  br i1 %.not30, label %33, label %40

33:                                               ; preds = %21
  %34 = getelementptr inbounds nuw i8, ptr %19, i64 8
  %35 = load i64, ptr %34, align 8
  %36 = load i64, ptr %24, align 8
  %37 = load i64, ptr %27, align 8
  %38 = add i64 %36, %37
  %39 = sub i64 %35, %38
  br label %40

40:                                               ; preds = %21, %33
  %41 = phi i64 [ %39, %33 ], [ 0, %21 ]
  %42 = getelementptr inbounds nuw i8, ptr %2, i64 8
  store i64 %41, ptr %42, align 8
  br label %evbuffer_read_setup_vecs_.exit

43:                                               ; preds = %16
  %44 = tail call i32 @evbuffer_expand_fast_(ptr noundef nonnull %0, i64 noundef %1, i32 noundef %3)
  %45 = icmp slt i32 %44, 0
  %46 = icmp slt i64 %1, 0
  %or.cond32 = or i1 %46, %45
  br i1 %or.cond32, label %evbuffer_read_setup_vecs_.exit, label %47

47:                                               ; preds = %43
  %48 = getelementptr inbounds nuw i8, ptr %0, i64 16
  %49 = load ptr, ptr %48, align 8
  %50 = load ptr, ptr %49, align 8
  %51 = getelementptr inbounds nuw i8, ptr %50, i64 32
  %52 = load i32, ptr %51, align 8
  %53 = and i32 %52, 8
  %.not.i = icmp eq i32 %53, 0
  br i1 %.not.i, label %54, label %.critedge.i

54:                                               ; preds = %47
  %55 = getelementptr inbounds nuw i8, ptr %50, i64 8
  %56 = load i64, ptr %55, align 8
  %57 = getelementptr inbounds nuw i8, ptr %50, i64 16
  %58 = load i64, ptr %57, align 8
  %59 = getelementptr inbounds nuw i8, ptr %50, i64 24
  %60 = load i64, ptr %59, align 8
  %61 = add i64 %60, %58
  %62 = icmp eq i64 %56, %61
  br i1 %62, label %.critedge.i, label %63

.critedge.i:                                      ; preds = %54, %47
  br label %63

63:                                               ; preds = %.critedge.i, %54
  %.043.i = phi ptr [ %50, %.critedge.i ], [ %49, %54 ]
  %.not33 = icmp eq i64 %1, 0
  br i1 %.not33, label %evbuffer_read_setup_vecs_.exit, label %.lr.ph.i

.lr.ph.i:                                         ; preds = %63
  %64 = zext nneg i32 %3 to i64
  br label %.lr.ph.split.us.i

.lr.ph.split.us.i:                                ; preds = %77, %.lr.ph.i
  %indvars.iv59.i = phi i64 [ %indvars.iv.next60.i, %77 ], [ 0, %.lr.ph.i ]
  %.04455.us.i.in = phi ptr [ %.04455.us.i, %77 ], [ %.043.i, %.lr.ph.i ]
  %.04253.us.i = phi i64 [ %87, %77 ], [ 0, %.lr.ph.i ]
  %.04455.us.i = load ptr, ptr %.04455.us.i.in, align 8
  %65 = getelementptr inbounds nuw i8, ptr %.04455.us.i, i64 32
  %66 = load i32, ptr %65, align 8
  %67 = and i32 %66, 8
  %.not48.us.i = icmp eq i32 %67, 0
  br i1 %.not48.us.i, label %68, label %.lr.ph.split.us._crit_edge.i

.lr.ph.split.us._crit_edge.i:                     ; preds = %.lr.ph.split.us.i
  %.phi.trans.insert64.i = getelementptr inbounds nuw i8, ptr %.04455.us.i, i64 16
  %.pre65.i = load i64, ptr %.phi.trans.insert64.i, align 8
  %.phi.trans.insert66.i = getelementptr inbounds nuw i8, ptr %.04455.us.i, i64 24
  %.pre67.i = load i64, ptr %.phi.trans.insert66.i, align 8
  br label %77

68:                                               ; preds = %.lr.ph.split.us.i
  %69 = getelementptr inbounds nuw i8, ptr %.04455.us.i, i64 8
  %70 = load i64, ptr %69, align 8
  %71 = getelementptr inbounds nuw i8, ptr %.04455.us.i, i64 16
  %72 = load i64, ptr %71, align 8
  %73 = getelementptr inbounds nuw i8, ptr %.04455.us.i, i64 24
  %74 = load i64, ptr %73, align 8
  %75 = add i64 %72, %74
  %76 = sub i64 %70, %75
  br label %77

77:                                               ; preds = %68, %.lr.ph.split.us._crit_edge.i
  %78 = phi i64 [ %74, %68 ], [ %.pre67.i, %.lr.ph.split.us._crit_edge.i ]
  %79 = phi i64 [ %72, %68 ], [ %.pre65.i, %.lr.ph.split.us._crit_edge.i ]
  %80 = phi i64 [ %76, %68 ], [ 0, %.lr.ph.split.us._crit_edge.i ]
  %81 = getelementptr inbounds nuw i8, ptr %.04455.us.i, i64 40
  %82 = load ptr, ptr %81, align 8
  %83 = getelementptr inbounds i8, ptr %82, i64 %79
  %84 = getelementptr inbounds nuw i8, ptr %83, i64 %78
  %85 = getelementptr inbounds nuw %struct.iovec, ptr %2, i64 %indvars.iv59.i
  store ptr %84, ptr %85, align 8
  %86 = getelementptr inbounds nuw i8, ptr %85, i64 8
  store i64 %80, ptr %86, align 8
  %87 = add i64 %80, %.04253.us.i
  %indvars.iv.next60.i = add nuw nsw i64 %indvars.iv59.i, 1
  %88 = icmp samesign ult i64 %indvars.iv.next60.i, %64
  %89 = icmp ult i64 %87, %1
  %90 = select i1 %88, i1 %89, i1 false
  br i1 %90, label %.lr.ph.split.us.i, label %._crit_edge.loopexit.i, !llvm.loop !14

._crit_edge.loopexit.i:                           ; preds = %77
  %91 = trunc nuw nsw i64 %indvars.iv.next60.i to i32
  br label %evbuffer_read_setup_vecs_.exit

evbuffer_read_setup_vecs_.exit:                   ; preds = %._crit_edge.loopexit.i, %63, %40, %43, %18, %10
  %.0 = phi i32 [ -1, %10 ], [ -1, %18 ], [ 1, %40 ], [ -1, %43 ], [ 0, %63 ], [ %91, %._crit_edge.loopexit.i ]
  %92 = load ptr, ptr %5, align 8
  %.not31 = icmp eq ptr %92, null
  br i1 %.not31, label %96, label %93

93:                                               ; preds = %evbuffer_read_setup_vecs_.exit
  %94 = load ptr, ptr getelementptr inbounds nuw (i8, ptr @evthread_lock_fns_, i64 32), align 8
  %95 = tail call i32 %94(i32 noundef 0, ptr noundef nonnull %92) #16
  br label %96

96:                                               ; preds = %93, %evbuffer_read_setup_vecs_.exit
  ret i32 %.0
}